AUTO FACTS
- runtime_dir=/mnt/e/Edu/Dartmouth/Winter 2026/COSC 269 Basics of Rev Engineering/HW/Final/challenges/downloads/pivot
- A sidecar library libpivot.so exists in the runtime directory.
- A flag.txt file exists in the runtime directory.
- foothold_function is imported through PLT/GOT; it is not the final target.
- pop rax; ret is available at 0x4009bb.
- xchg rsp, rax; ret is available at 0x4009bd.
- The binary leaks a pivot address at startup before asking for the first ROP chain.
- The binary expects a first-stage ROP chain followed by a separate stack-smash payload.

RAW EVIDENCE
TOOL readelf_sections [ok]
There are 29 section headers, starting at offset 0x1b40:

Section Headers:
  [Nr] Name              Type             Address           Offset
       Size              EntSize          Flags  Link  Info  Align
  [ 0]                   NULL             0000000000000000  00000000
       0000000000000000  0000000000000000           0     0     0
  [ 1] .interp           PROGBITS         0000000000400238  00000238
       000000000000001c  0000000000000000   A       0     0     1
  [ 2] .note.ABI-tag     NOTE             0000000000400254  00000254
       0000000000000020  0000000000000000   A       0     0     4
  [ 3] .note.gnu.bu[...] NOTE             0000000000400274  00000274
       0000000000000024  0000000000000000   A       0     0     4
  [ 4] .gnu.hash         GNU_HASH         0000000000400298  00000298
       000000000000003c  0000000000000000   A       5     0     8
  [ 5] .dynsym           DYNSYM           00000000004002d8  000002d8
       00000000000001b0  0000000000000018   A       6     1     8
  [ 6] .dynstr           STRTAB           0000000000400488  00000488
       00000000000000b4  0000000000000000   A       0     0     1
  [ 7] .gnu.version      VERSYM           000000000040053c  0000053c
       0000000000000024  0000000000000002   A       5     0     2
  [ 8] .gnu.version_r    VERNEED          0000000000400560  00000560
       0000000000000020  0000000000000000   A       6     1     8
  [ 9] .rela.dyn         RELA             0000000000400580  00000580
       0000000000000048  0000000000000018   A       5     0     8
  [10] .rela.plt         RELA             00000000004005c8  000005c8
       00000000000000d8  0000000000000018  AI       5    22     8
  [11] .init             PROGBITS         00000000004006a0  000006a0
       0000000000000017  0000000000000000  AX       0     0     4
  [12] .plt              PROGBITS         00000000004006c0  000006c0
       00000000000000a0  0000000000000010  AX       0     0     16
  [13] .text             PROGBITS         0000000000400760  00000760
       00000000000002e2  0000000000000000  AX       0     0     16
  [14] .fini             PROGBITS         0000000000400a44  00000a44
       0000000000000009  0000000000000000  AX       0     0     4
  [15] .rodata           PROGBITS         0000000000400a50  00000a50
       0000000000000124  0000000000000000   A       0     0     8
  [16] .eh_frame_hdr     PROGBITS         0000000000400b74  00000b74
       000000000000004c  0000000000000000   A       0     0     4
  [17] .eh_frame         PROGBITS         0000000000400bc0  00000bc0
       0000000000000140  0000000000000000   A       0     0     8
  [18] .init_array       INIT_ARRAY       0000000000600df0  00000df0
       0000000000000008  0000000000000008  WA       0     0     8
  [19] .fini_array       FINI_ARRAY       0000000000600df8  00000df8
       0000000000000008  0000000000000008  WA       0     0     8
  [20] .dynamic          DYNAMIC          0000000000600e00  00000e00
       00000000000001f0  0000000000000010  WA       6     0     8
  [21] .got              PROGBITS         0000000000600ff0  00000ff0
       0000000000000010  0000000000000008  WA       0     0     8
  [22] .got.plt          PROGBITS         0000000000601000  00001000
       0000000000000060  0000000000000008  WA       0     0     8
  [23] .data             PROGBITS         0000000000601060  00001060
       0000000000000010  0000000000000000  WA       0     0     8
  [24] .bss              NOBITS           0000000000601070  00001070
       0000000000000010  0000000000000000  WA       0     0     8
  [25] .comment          PROGBITS         0000000000000000  00001070
       0000000000000029  0000000000000001  MS       0     0     1
  [26] .symtab           SYMTAB           0000000000000000  000010a0
       00000000000006f0  0000000000000018          27    47     8
  [27] .strtab           STRTAB           0000000000000000  00001790
       00000000000002aa  0000000000000000           0     0     1
  [28] .s
...[truncated]

TOOL readelf_relocs [ok]
Relocation section '.rela.dyn' at offset 0x580 contains 3 entries:
  Offset          Info           Type           Sym. Value    Sym. Name + Addend
000000600ff0  000600000006 R_X86_64_GLOB_DAT 0000000000000000 __libc_start_main@GLIBC_2.2.5 + 0
000000600ff8  000700000006 R_X86_64_GLOB_DAT 0000000000000000 __gmon_start__ + 0
000000601070  000c00000005 R_X86_64_COPY     0000000000601070 stdout@GLIBC_2.2.5 + 0

Relocation section '.rela.plt' at offset 0x5c8 contains 9 entries:
  Offset          Info           Type           Sym. Value    Sym. Name + Addend
000000601018  000100000007 R_X86_64_JUMP_SLO 0000000000000000 free@GLIBC_2.2.5 + 0
000000601020  000200000007 R_X86_64_JUMP_SLO 0000000000000000 puts@GLIBC_2.2.5 + 0
000000601028  000300000007 R_X86_64_JUMP_SLO 0000000000000000 printf@GLIBC_2.2.5 + 0
000000601030  000400000007 R_X86_64_JUMP_SLO 0000000000000000 memset@GLIBC_2.2.5 + 0
000000601038  000500000007 R_X86_64_JUMP_SLO 0000000000000000 read@GLIBC_2.2.5 + 0
000000601040  000800000007 R_X86_64_JUMP_SLO 0000000000000000 foothold_function + 0
000000601048  000900000007 R_X86_64_JUMP_SLO 0000000000000000 malloc@GLIBC_2.2.5 + 0
000000601050  000a00000007 R_X86_64_JUMP_SLO 0000000000000000 setvbuf@GLIBC_2.2.5 + 0
000000601058  000b00000007 R_X86_64_JUMP_SLO 0000000000000000 exit@GLIBC_2.2.5 + 0

TOOL readelf_symbols [ok]
args: {'pattern': 'main|win|ret|foothold|print_file|system|call|pivot|useful|csu'}
6: 0000000000000000     0 FUNC    GLOBAL DEFAULT  UND __libc_start_main@GLIBC_2.2.5 (2)
     8: 0000000000000000     0 FUNC    GLOBAL DEFAULT  UND foothold_function
    34: 0000000000000000     0 FILE    LOCAL  DEFAULT  ABS pivot.c
    38: 00000000004009bb     0 NOTYPE  LOCAL  DEFAULT   13 usefulGadgets
    47: 0000000000400a40     2 FUNC    GLOBAL DEFAULT   13 __libc_csu_fini
    57: 0000000000000000     0 FUNC    GLOBAL DEFAULT  UND __libc_start_main@@GLIBC_2.2.5
    62: 0000000000000000     0 FUNC    GLOBAL DEFAULT  UND foothold_function
    63: 00000000004009d0   101 FUNC    GLOBAL DEFAULT   13 __libc_csu_init
    69: 0000000000400847   170 FUNC    GLOBAL DEFAULT   13 main

TOOL gadget_search [ok]
args: {'needle': 'xchg rsp,rax'}
4009bc:	c3                   	ret
  4009bd:	48 94                	xchg   rsp,rax
  4009bf:	c3                   	ret

TOOL gadget_search [ok]
args: {'needle': 'pop rax'}
00000000004009bb <usefulGadgets>:
  4009bb:	58                   	pop    rax
  4009bc:	c3                   	ret

TOOL readelf_symbols [ok]
args: {'pattern': 'foothold|ret2win|useful|main'}
6: 0000000000000000     0 FUNC    GLOBAL DEFAULT  UND __libc_start_main@GLIBC_2.2.5 (2)
     8: 0000000000000000     0 FUNC    GLOBAL DEFAULT  UND foothold_function
    38: 00000000004009bb     0 NOTYPE  LOCAL  DEFAULT   13 usefulGadgets
    57: 0000000000000000     0 FUNC    GLOBAL DEFAULT  UND __libc_start_main@@GLIBC_2.2.5
    62: 0000000000000000     0 FUNC    GLOBAL DEFAULT  UND foothold_function
    69: 0000000000400847   170 FUNC    GLOBAL DEFAULT   13 main

COMMAND file_info [ok]
/mnt/e/Edu/Dartmouth/Winter 2026/COSC 269 Basics of Rev Engineering/HW/Final/challenges/bin/rop_pivot: ELF 64-bit LSB executable, x86-64, version 1 (SYSV), dynamically linked, interpreter /lib64/ld-linux-x86-64.so.2, for GNU/Linux 3.2.0, BuildID[sha1]=0e9fb878206e1858b042597fd36c51aa07497121, not stripped

COMMAND nearby_files [ok]
binary_dir: /mnt/e/Edu/Dartmouth/Winter 2026/COSC 269 Basics of Rev Engineering/HW/Final/challenges/bin
branch_puzzle
flag.txt
format_string
integer_edge
rop_badchars
rop_callme
rop_fluff
rop_pivot
rop_ret2csu
rop_ret2win
rop_split
rop_write4
stack_overflow

runtime_dir: /mnt/e/Edu/Dartmouth/Winter 2026/COSC 269 Basics of Rev Engineering/HW/Final/challenges/downloads/pivot
flag.txt
libpivot.so
pivot

COMMAND ldd [ok]
linux-vdso.so.1 (0x00007ffd707eb000)
	libpivot.so => not found
	libc.so.6 => /lib/x86_64-linux-gnu/libc.so.6 (0x000070b7a7c00000)
	/lib64/ld-linux-x86-64.so.2 (0x000070b7a7ea5000)

COMMAND run_head [ok]
args: {'timeout': 2}
pivot by ROP Emporium
x86_64

Call ret2win() from libpivot
The Old Gods kindly bestow upon you a place to pivot: 0x78612c5fef10
Send a ROP chain now and it will land there
>
[timeout]

NEW ROUND RESULTS
TOOL readelf_symbols [ok]
args: {'pattern': 'foothold|ret2win', 'binary_path': '/mnt/e/Edu/Dartmouth/Winter 2026/COSC 269 Basics of Rev Engineering/HW/Final/challenges/downloads/pivot/libpivot.so'}
8: 0000000000000000     0 FUNC    GLOBAL DEFAULT  UND foothold_function
    62: 0000000000000000     0 FUNC    GLOBAL DEFAULT  UND foothold_function

TOOL gadget_search [error]
args: {'needle': 'pop rdi; ret'}
error: gadget/instruction not found: pop rdi; ret

<no local command results>

NEW ROUND RESULTS
<no local tool results>

COMMAND ropgadget [error]
args: {'binary_only': True}
error: required command is not installed: ROPgadget

COMMAND shell [ok]
args: {'command': 'objdump -d -M intel /mnt/e/Edu/Dartmouth/Winter 2026/COSC 269 Basics of Rev Engineering/HW/Final/challenges/downloads/pivot/libpivot.so'}
[exit_code=1]
objdump: '/mnt/e/Edu/Dartmouth/Winter': No such file
objdump: '2026/COSC': No such file
objdump: '269': No such file
objdump: 'Basics': No such file
objdump: 'of': No such file
objdump: 'Rev': No such file
objdump: 'Engineering/HW/Final/challenges/downloads/pivot/libpivot.so': No such file

NEW ROUND RESULTS
TOOL gadget_search [error]
args: {'needle': 'pop rdi; ret'}
error: gadget/instruction not found: pop rdi; ret

COMMAND nm_symbols [ok]
args: {'binary_path': '/mnt/e/Edu/Dartmouth/Winter 2026/COSC 269 Basics of Rev Engineering/HW/Final/challenges/downloads/pivot/libpivot.so'}
0000000000600e00 d _DYNAMIC
0000000000601000 d _GLOBAL_OFFSET_TABLE_
0000000000400a50 R _IO_stdin_used
0000000000400cfc r __FRAME_END__
0000000000400b74 r __GNU_EH_FRAME_HDR
0000000000601070 D __TMC_END__
0000000000601070 B __bss_start
0000000000601060 D __data_start
0000000000400810 t __do_global_dtors_aux
0000000000600df8 d __do_global_dtors_aux_fini_array_entry
0000000000601068 D __dso_handle
0000000000600df0 d __frame_dummy_init_array_entry
                 w __gmon_start__
0000000000600df8 d __init_array_end
0000000000600df0 d __init_array_start
0000000000400a40 T __libc_csu_fini
00000000004009d0 T __libc_csu_init
                 U __libc_start_main@@GLIBC_2.2.5
0000000000400790 T _dl_relocate_static_pie
0000000000601070 D _edata
0000000000601080 B _end
0000000000400a44 T _fini
00000000004006a0 T _init
0000000000400760 T _start
0000000000601078 b completed.7698
0000000000601060 W data_start
00000000004007a0 t deregister_tm_clones
                 U exit@@GLIBC_2.2.5
                 U foothold_function
0000000000400840 t frame_dummy
                 U free@@GLIBC_2.2.5
0000000000400847 T main
                 U malloc@@GLIBC_2.2.5
                 U memset@@GLIBC_2.2.5
                 U printf@@GLIBC_2.2.5
                 U puts@@GLIBC_2.2.5
00000000004008f1 t pwnme
                 U read@@GLIBC_2.2.5
00000000004007d0 t register_tm_clones
                 U setvbuf@@GLIBC_2.2.5
0000000000601070 B stdout@@GLIBC_2.2.5
00000000004009bb t usefulGadgets
00000000004009a8 t uselessFunction

NEW ROUND RESULTS
TOOL gadget_search [error]
args: {'needle': 'pop rdi; ret'}
error: gadget/instruction not found: pop rdi; ret

TOOL readelf_symbols [error]
args: {'pattern': 'ret2win', 'binary_path': '/mnt/e/Edu/Dartmouth/Winter 2026/COSC 269 Basics of Rev Engineering/HW/Final/challenges/downloads/pivot/libpivot.so'}
error: no symbols matched pattern: ret2win

TOOL objdump_disasm [rejected]
error: tool is not in the allowlist

<no local command results>

NEW ROUND RESULTS
TOOL gadget_search [error]
args: {'needle': 'pop rdi; ret'}
error: gadget/instruction not found: pop rdi; ret

TOOL readelf_symbols [ok]
args: {'pattern': 'ret2win|foothold', 'binary_path': '/mnt/e/Edu/Dartmouth/Winter 2026/COSC 269 Basics of Rev Engineering/HW/Final/challenges/downloads/pivot/libpivot.so'}
8: 0000000000000000     0 FUNC    GLOBAL DEFAULT  UND foothold_function
    62: 0000000000000000     0 FUNC    GLOBAL DEFAULT  UND foothold_function

COMMAND shell [ok]
args: {'command': 'objdump -d -M intel "/mnt/e/Edu/Dartmouth/Winter 2026/COSC 269 Basics of Rev Engineering/HW/Final/challenges/downloads/pivot/libpivot.so"'}
/mnt/e/Edu/Dartmouth/Winter 2026/COSC 269 Basics of Rev Engineering/HW/Final/challenges/downloads/pivot/libpivot.so:     file format elf64-x86-64


Disassembly of section .init:

0000000000000808 <_init>:
 808:	48 83 ec 08          	sub    rsp,0x8
 80c:	48 8b 05 d5 07 20 00 	mov    rax,QWORD PTR [rip+0x2007d5]        # 200fe8 <__gmon_start__>
 813:	48 85 c0             	test   rax,rax
 816:	74 02                	je     81a <_init+0x12>
 818:	ff d0                	call   rax
 81a:	48 83 c4 08          	add    rsp,0x8
 81e:	c3                   	ret

Disassembly of section .plt:

0000000000000820 <.plt>:
 820:	ff 35 e2 07 20 00    	push   QWORD PTR [rip+0x2007e2]        # 201008 <_GLOBAL_OFFSET_TABLE_+0x8>
 826:	ff 25 e4 07 20 00    	jmp    QWORD PTR [rip+0x2007e4]        # 201010 <_GLOBAL_OFFSET_TABLE_+0x10>
 82c:	0f 1f 40 00          	nop    DWORD PTR [rax+0x0]

0000000000000830 <puts@plt>:
 830:	ff 25 e2 07 20 00    	jmp    QWORD PTR [rip+0x2007e2]        # 201018 <puts@GLIBC_2.2.5>
 836:	68 00 00 00 00       	push   0x0
 83b:	e9 e0 ff ff ff       	jmp    820 <.plt>

0000000000000840 <fclose@plt>:
 840:	ff 25 da 07 20 00    	jmp    QWORD PTR [rip+0x2007da]        # 201020 <fclose@GLIBC_2.2.5>
 846:	68 01 00 00 00       	push   0x1
 84b:	e9 d0 ff ff ff       	jmp    820 <.plt>

0000000000000850 <fgets@plt>:
 850:	ff 25 d2 07 20 00    	jmp    QWORD PTR [rip+0x2007d2]        # 201028 <fgets@GLIBC_2.2.5>
 856:	68 02 00 00 00       	push   0x2
 85b:	e9 c0 ff ff ff       	jmp    820 <.plt>

0000000000000860 <fopen@plt>:
 860:	ff 25 ca 07 20 00    	jmp    QWORD PTR [rip+0x2007ca]        # 201030 <fopen@GLIBC_2.2.5>
 866:	68 03 00 00 00       	push   0x3
 86b:	e9 b0 ff ff ff       	jmp    820 <.plt>

0000000000000870 <exit@plt>:
 870:	ff 25 c2 07 20 00    	jmp    QWORD PTR [rip+0x2007c2]        # 201038 <exit@GLIBC_2.2.5>
 876:	68 04 00 00 00       	push   0x4
 87b:	e9 a0 ff ff ff       	jmp    820 <.plt>

Disassembly of section .plt.got:

0000000000000880 <__cxa_finalize@plt>:
 880:	ff 25 72 07 20 00    	jmp    QWORD PTR [rip+0x200772]        # 200ff8 <__cxa_finalize@GLIBC_2.2.5>
 886:	66 90                	xchg   ax,ax

Disassembly of section .text:

0000000000000890 <deregister_tm_clones>:
 890:	48 8d 3d b1 07 20 00 	lea    rdi,[rip+0x2007b1]        # 201048 <completed.7698>
 897:	55                   	push   rbp
 898:	48 8d 05 a9 07 20 00 	lea    rax,[rip+0x2007a9]        # 201048 <completed.7698>
 89f:	48 39 f8             	cmp    rax,rdi
 8a2:	48 89 e5             	mov    rbp,rsp
 8a5:	74 19                	je     8c0 <deregister_tm_clones+0x30>
 8a7:	48 8b 05 32 07 20 00 	mov    rax,QWORD PTR [rip+0x200732]        # 200fe0 <_ITM_deregisterTMCloneTable>
 8ae:	48 85 c0             	test   rax,rax
 8b1:	74 0d                	je     8c0 <deregister_tm_clones+0x30>
 8b3:	5d                   	pop    rbp
 8b4:	ff e0                	jmp    rax
 8b6:	66 2e 0f 1f 84 00 00 	cs nop WORD PTR [rax+rax*1+0x0]
 8bd:	00 00 00 
 8c0:	5d                   	pop    rbp
 8c1:	c3                   	ret
 8c2:	0f 1f 40 00          	nop    DWORD PTR [rax+0x0]
 8c6:	66 2e 0f 1f 84 00 00 	cs nop WORD PTR [rax+rax*1+0x0]
 8cd:	00 00 00 

00000000000008d0 <register_tm_clones>:
 8d0:	48 8d 3d 71 07 20 00 	lea    rdi,[rip+0x200771]        # 201048 <completed.7698>
 8d7:	48 8d 35 6a 07 20 00 	lea    rsi,[rip+0x20076a]        # 201048 <completed.7698>
 8de:	55                   	push   rbp
 8df:	48 29 fe             	sub    rsi,rdi
 8e2:	48 89 e5             	mov    rbp,rsp
 8e5:	48 c1 fe 03          	sar    rsi,0x3
 8e9:	48 89 f0             	mov    rax,rsi
 8ec:	48 c1 e8 3f          	shr    rax,0x3f
 8f0:	48 01 c6             	add    rsi,rax
 8f3:	48 d1 fe             	sar    rsi,1
 8f6:	74 18                	je     910 <register_tm_clones+0x40>
 8f8:	48 8b 05 f1 06 20 00 	mov    rax,QWORD PTR [rip+0x2006f1]        # 200ff0 <_ITM_registerTMCloneTable>
 8ff:	48 85 c0             	test   rax,rax
 902:	74 0c                	je     910 <register_tm_clones+0x40>
...[truncated]